; Function Attrs: mustprogress uwtable
define hidden noundef i64 @_ZNK12opencv_caffe18BatchNormParameter12ByteSizeLongEv(ptr noundef nonnull align 8 dereferenceable(40) %0) unnamed_addr #3 align 2 {
  %2 = getelementptr inbounds nuw i8, ptr %0, i64 16
  %3 = load i32, ptr %2, align 8, !tbaa !71
  %4 = and i32 %3, 15
  %.not = icmp eq i32 %4, 0
  br i1 %.not, label %13, label %5

5:                                                ; preds = %1
  %6 = shl i32 %3, 1
  %7 = and i32 %6, 2
  %8 = and i32 %3, 2
  %narrow = add nuw nsw i32 %7, %8
  %.2 = zext nneg i32 %narrow to i64
  %9 = and i32 %3, 4
  %.not12 = icmp eq i32 %9, 0
  %10 = add nuw nsw i64 %.2, 5
  %.3 = select i1 %.not12, i64 %.2, i64 %10
  %11 = and i32 %3, 8
  %.not13 = icmp eq i32 %11, 0
  %12 = add nuw nsw i64 %.3, 5
  %spec.select14 = select i1 %.not13, i64 %.3, i64 %12
  br label %13

13:                                               ; preds = %5, %1
  %.0 = phi i64 [ 0, %1 ], [ %spec.select14, %5 ]
  %14 = getelementptr inbounds nuw i8, ptr %0, i64 20
  %15 = tail call noundef i64 @_ZNK6google8protobuf7Message29MaybeComputeUnknownFieldsSizeEmPNS0_8internal10CachedSizeE(ptr noundef nonnull align 8 dereferenceable(16) %0, i64 noundef %.0, ptr noundef nonnull %14)
  ret i64 %15
}